; Function Attrs: mustprogress nounwind uwtable
define internal fastcc noundef range(i64 0, 2) i64 @_ZNK4llvm9StringMapIN12_GLOBAL__N_110StructInfoENS_15MallocAllocatorEE5countENS_9StringRefE(ptr noundef nonnull align 8 dereferenceable(24) %0, ptr %1, i64 %2) unnamed_addr #0 align 2 {
  %4 = tail call noundef i32 @_ZN4llvm13StringMapImpl4hashENS_9StringRefE(ptr %1, i64 %2) #24
  %5 = tail call noundef i32 @_ZNK4llvm13StringMapImpl7FindKeyENS_9StringRefEj(ptr noundef nonnull align 8 dereferenceable(24) %0, ptr %1, i64 %2, i32 noundef %4) #24
  %6 = icmp ne i32 %5, -1
  %7 = getelementptr inbounds nuw i8, ptr %0, i64 8
  %.val5.i.i.i = load i32, ptr %7, align 8
  %8 = zext i32 %.val5.i.i.i to i64
  %9 = sext i32 %5 to i64
  %10 = icmp ne i64 %9, %8
  %11 = select i1 %6, i1 %10, i1 false
  %12 = zext i1 %11 to i64
  ret i64 %12
}